target datalayout = "e-m:e-p270:32:32-p271:32:32-p272:64:64-i64:64-i128:128-f80:128-n8:16:32:64-S128"
target triple = "x86_64-pc-linux-gnu"

%"class.cv::Size_" = type { i32, i32 }
%"class.testing::internal::linked_ptr_internal" = type { ptr }
%"class.perf::MatType" = type { i32 }
%"class.testing::internal::ParamGenerator.95" = type { %"class.testing::internal::linked_ptr.96" }
%"class.testing::internal::linked_ptr.96" = type { ptr, %"class.testing::internal::linked_ptr_internal" }
%"class.testing::internal::CartesianProductHolder3" = type { %"class.testing::internal::ValueArray3.185", %"class.testing::internal::ValueArray2.186", %"class.testing::internal::ValueArray2.187" }
%"class.testing::internal::ValueArray3.185" = type { %"class.cv::Size_", %"class.cv::Size_", %"class.cv::Size_" }
%"class.testing::internal::ValueArray2.186" = type { double, double }
%"class.testing::internal::ValueArray2.187" = type { %"class.perf::MatType", %"class.perf::MatType" }

@_ZN4perfL5szVGAE = internal global %"class.cv::Size_" zeroinitializer, align 4
@_ZN4perfL6sz720pE = internal global %"class.cv::Size_" zeroinitializer, align 4
@_ZN4perfL7sz1080pE = internal global %"class.cv::Size_" zeroinitializer, align 4

; Function Attrs: mustprogress nounwind uwtable
define linkonce_odr hidden void @_ZN7testing8internal11ValueArray2IN4perf7MatTypeES3_EC2ERKS4_(ptr noundef nonnull align 4 dereferenceable(8) %0, ptr noundef nonnull align 4 dereferenceable(8) %1) unnamed_addr #9 comdat align 2 {
  %3 = alloca ptr, align 8
  %4 = alloca ptr, align 8
  store ptr %0, ptr %3, align 8, !tbaa !752
  store ptr %1, ptr %4, align 8, !tbaa !752
  %5 = load ptr, ptr %3, align 8
  %6 = getelementptr inbounds nuw %"class.testing::internal::ValueArray2.187", ptr %5, i32 0, i32 0
  %7 = load ptr, ptr %4, align 8, !tbaa !752
  %8 = getelementptr inbounds nuw %"class.testing::internal::ValueArray2.187", ptr %7, i32 0, i32 0
  call void @llvm.memcpy.p0.p0.i64(ptr align 4 %6, ptr align 4 %8, i64 4, i1 false), !tbaa.struct !80
  %9 = getelementptr inbounds nuw %"class.testing::internal::ValueArray2.187", ptr %5, i32 0, i32 1
  %10 = load ptr, ptr %4, align 8, !tbaa !752
  %11 = getelementptr inbounds nuw %"class.testing::internal::ValueArray2.187", ptr %10, i32 0, i32 1
  call void @llvm.memcpy.p0.p0.i64(ptr align 4 %9, ptr align 4 %11, i64 4, i1 false), !tbaa.struct !80
  ret void
}

; Function Attrs: mustprogress nounwind uwtable
define linkonce_odr hidden void @_ZN7testing8internal11ValueArray2IddEC2ERKS2_(ptr noundef nonnull align 8 dereferenceable(16) %0, ptr noundef nonnull align 8 dereferenceable(16) %1) unnamed_addr #9 comdat align 2 {
  %3 = alloca ptr, align 8
  %4 = alloca ptr, align 8
  store ptr %0, ptr %3, align 8, !tbaa !750
  store ptr %1, ptr %4, align 8, !tbaa !750
  %5 = load ptr, ptr %3, align 8
  %6 = getelementptr inbounds nuw %"class.testing::internal::ValueArray2.186", ptr %5, i32 0, i32 0
  %7 = load ptr, ptr %4, align 8, !tbaa !750
  %8 = getelementptr inbounds nuw %"class.testing::internal::ValueArray2.186", ptr %7, i32 0, i32 0
  %9 = load double, ptr %8, align 8, !tbaa !756
  store double %9, ptr %6, align 8, !tbaa !756
  %10 = getelementptr inbounds nuw %"class.testing::internal::ValueArray2.186", ptr %5, i32 0, i32 1
  %11 = load ptr, ptr %4, align 8, !tbaa !750
  %12 = getelementptr inbounds nuw %"class.testing::internal::ValueArray2.186", ptr %11, i32 0, i32 1
  %13 = load double, ptr %12, align 8, !tbaa !758
  store double %13, ptr %10, align 8, !tbaa !758
  ret void
}

; Function Attrs: mustprogress nounwind uwtable
define linkonce_odr hidden void @_ZN7testing8internal11ValueArray3IN2cv5Size_IiEES4_S4_EC2ERKS5_(ptr noundef nonnull align 4 dereferenceable(24) %0, ptr noundef nonnull align 4 dereferenceable(24) %1) unnamed_addr #9 comdat align 2 {
  %3 = alloca ptr, align 8
  %4 = alloca ptr, align 8
  store ptr %0, ptr %3, align 8, !tbaa !748
  store ptr %1, ptr %4, align 8, !tbaa !748
  %5 = load ptr, ptr %3, align 8
  %6 = getelementptr inbounds nuw %"class.testing::internal::ValueArray3.185", ptr %5, i32 0, i32 0
  %7 = load ptr, ptr %4, align 8, !tbaa !748
  %8 = getelementptr inbounds nuw %"class.testing::internal::ValueArray3.185", ptr %7, i32 0, i32 0
  call void @llvm.memcpy.p0.p0.i64(ptr align 4 %6, ptr align 4 %8, i64 8, i1 false), !tbaa.struct !73
  %9 = getelementptr inbounds nuw %"class.testing::internal::ValueArray3.185", ptr %5, i32 0, i32 1
  %10 = load ptr, ptr %4, align 8, !tbaa !748
  %11 = getelementptr inbounds nuw %"class.testing::internal::ValueArray3.185", ptr %10, i32 0, i32 1
  call void @llvm.memcpy.p0.p0.i64(ptr align 4 %9, ptr align 4 %11, i64 8, i1 false), !tbaa.struct !73
  %12 = getelementptr inbounds nuw %"class.testing::internal::ValueArray3.185", ptr %5, i32 0, i32 2
  %13 = load ptr, ptr %4, align 8, !tbaa !748
  %14 = getelementptr inbounds nuw %"class.testing::internal::ValueArray3.185", ptr %13, i32 0, i32 2
  call void @llvm.memcpy.p0.p0.i64(ptr align 4 %12, ptr align 4 %14, i64 8, i1 false), !tbaa.struct !73
  ret void
}

; Function Attrs: mustprogress uwtable
define linkonce_odr hidden void @_ZN7testing8internal23CartesianProductHolder3INS0_11ValueArray3IN2cv5Size_IiEES5_S5_EENS0_11ValueArray2IddEENS7_IN4perf7MatTypeESA_EEEC2ERKS6_RKS8_RKSB_(ptr noundef nonnull align 8 dereferenceable(48) %0, ptr noundef nonnull align 4 dereferenceable(24) %1, ptr noundef nonnull align 8 dereferenceable(16) %2, ptr noundef nonnull align 4 dereferenceable(8) %3) unnamed_addr #6 comdat align 2 {
  %5 = alloca ptr, align 8
  %6 = alloca ptr, align 8
  %7 = alloca ptr, align 8
  %8 = alloca ptr, align 8
  store ptr %0, ptr %5, align 8, !tbaa !754
  store ptr %1, ptr %6, align 8, !tbaa !748
  store ptr %2, ptr %7, align 8, !tbaa !750
  store ptr %3, ptr %8, align 8, !tbaa !752
  %9 = load ptr, ptr %5, align 8
  %10 = getelementptr inbounds nuw %"class.testing::internal::CartesianProductHolder3", ptr %9, i32 0, i32 0
  %11 = load ptr, ptr %6, align 8, !tbaa !748
  call void @_ZN7testing8internal11ValueArray3IN2cv5Size_IiEES4_S4_EC2ERKS5_(ptr noundef nonnull align 4 dereferenceable(24) %10, ptr noundef nonnull align 4 dereferenceable(24) %11)
  %12 = getelementptr inbounds nuw %"class.testing::internal::CartesianProductHolder3", ptr %9, i32 0, i32 1
  %13 = load ptr, ptr %7, align 8, !tbaa !750
  call void @_ZN7testing8internal11ValueArray2IddEC2ERKS2_(ptr noundef nonnull align 8 dereferenceable(16) %12, ptr noundef nonnull align 8 dereferenceable(16) %13)
  %14 = getelementptr inbounds nuw %"class.testing::internal::CartesianProductHolder3", ptr %9, i32 0, i32 2
  %15 = load ptr, ptr %8, align 8, !tbaa !752
  call void @_ZN7testing8internal11ValueArray2IN4perf7MatTypeES3_EC2ERKS4_(ptr noundef nonnull align 4 dereferenceable(8) %14, ptr noundef nonnull align 4 dereferenceable(8) %15)
  ret void
}

; Function Attrs: mustprogress nounwind uwtable
define linkonce_odr hidden void @_ZN7testing8internal11ValueArray2IN4perf7MatTypeES3_EC2ES3_S3_(ptr noundef nonnull align 4 dereferenceable(8) %0, i32 %1, i32 %2) unnamed_addr #9 comdat align 2 {
  %4 = alloca %"class.perf::MatType", align 4
  %5 = alloca %"class.perf::MatType", align 4
  %6 = alloca ptr, align 8
  %7 = getelementptr inbounds nuw %"class.perf::MatType", ptr %4, i32 0, i32 0
  store i32 %1, ptr %7, align 4
  %8 = getelementptr inbounds nuw %"class.perf::MatType", ptr %5, i32 0, i32 0
  store i32 %2, ptr %8, align 4
  store ptr %0, ptr %6, align 8, !tbaa !752
  %9 = load ptr, ptr %6, align 8
  %10 = getelementptr inbounds nuw %"class.testing::internal::ValueArray2.187", ptr %9, i32 0, i32 0
  call void @llvm.memcpy.p0.p0.i64(ptr align 4 %10, ptr align 4 %4, i64 4, i1 false), !tbaa.struct !80
  %11 = getelementptr inbounds nuw %"class.testing::internal::ValueArray2.187", ptr %9, i32 0, i32 1
  call void @llvm.memcpy.p0.p0.i64(ptr align 4 %11, ptr align 4 %5, i64 4, i1 false), !tbaa.struct !80
  ret void
}

; Function Attrs: mustprogress nounwind uwtable
define linkonce_odr hidden void @_ZN7testing8internal11ValueArray2IddEC2Edd(ptr noundef nonnull align 8 dereferenceable(16) %0, double noundef %1, double noundef %2) unnamed_addr #9 comdat align 2 {
  %4 = alloca ptr, align 8
  %5 = alloca double, align 8
  %6 = alloca double, align 8
  store ptr %0, ptr %4, align 8, !tbaa !750
  store double %1, ptr %5, align 8, !tbaa !83
  store double %2, ptr %6, align 8, !tbaa !83
  %7 = load ptr, ptr %4, align 8
  %8 = getelementptr inbounds nuw %"class.testing::internal::ValueArray2.186", ptr %7, i32 0, i32 0
  %9 = load double, ptr %5, align 8, !tbaa !83
  store double %9, ptr %8, align 8, !tbaa !756
  %10 = getelementptr inbounds nuw %"class.testing::internal::ValueArray2.186", ptr %7, i32 0, i32 1
  %11 = load double, ptr %6, align 8, !tbaa !83
  store double %11, ptr %10, align 8, !tbaa !758
  ret void
}

; Function Attrs: mustprogress nounwind uwtable
define linkonce_odr hidden void @_ZN7testing8internal11ValueArray3IN2cv5Size_IiEES4_S4_EC2ES4_S4_S4_(ptr noundef nonnull align 4 dereferenceable(24) %0, i64 %1, i64 %2, i64 %3) unnamed_addr #9 comdat align 2 {
  %5 = alloca %"class.cv::Size_", align 4
  %6 = alloca %"class.cv::Size_", align 4
  %7 = alloca %"class.cv::Size_", align 4
  %8 = alloca ptr, align 8
  store i64 %1, ptr %5, align 4
  store i64 %2, ptr %6, align 4
  store i64 %3, ptr %7, align 4
  store ptr %0, ptr %8, align 8, !tbaa !748
  %9 = load ptr, ptr %8, align 8
  %10 = getelementptr inbounds nuw %"class.testing::internal::ValueArray3.185", ptr %9, i32 0, i32 0
  call void @llvm.memcpy.p0.p0.i64(ptr align 4 %10, ptr align 4 %5, i64 8, i1 false), !tbaa.struct !73
  %11 = getelementptr inbounds nuw %"class.testing::internal::ValueArray3.185", ptr %9, i32 0, i32 1
  call void @llvm.memcpy.p0.p0.i64(ptr align 4 %11, ptr align 4 %6, i64 8, i1 false), !tbaa.struct !73
  %12 = getelementptr inbounds nuw %"class.testing::internal::ValueArray3.185", ptr %9, i32 0, i32 2
  call void @llvm.memcpy.p0.p0.i64(ptr align 4 %12, ptr align 4 %7, i64 8, i1 false), !tbaa.struct !73
  ret void
}

; Function Attrs: mustprogress uwtable
define linkonce_odr hidden void @_ZN7testing7CombineINS_8internal11ValueArray3IN2cv5Size_IiEES5_S5_EENS1_11ValueArray2IddEENS7_IN4perf7MatTypeESA_EEEENS1_23CartesianProductHolder3IT_T0_T1_EERKSD_RKSE_RKSF_(ptr dead_on_unwind noalias writable sret(%"class.testing::internal::CartesianProductHolder3") align 8 %0, ptr noundef nonnull align 4 dereferenceable(24) %1, ptr noundef nonnull align 8 dereferenceable(16) %2, ptr noundef nonnull align 4 dereferenceable(8) %3) #6 comdat {
  %5 = alloca ptr, align 8
  %6 = alloca ptr, align 8
  %7 = alloca ptr, align 8
  %8 = alloca ptr, align 8
  store ptr %0, ptr %5, align 8
  store ptr %1, ptr %6, align 8, !tbaa !748
  store ptr %2, ptr %7, align 8, !tbaa !750
  store ptr %3, ptr %8, align 8, !tbaa !752
  %9 = load ptr, ptr %6, align 8, !tbaa !748
  %10 = load ptr, ptr %7, align 8, !tbaa !750
  %11 = load ptr, ptr %8, align 8, !tbaa !752
  call void @_ZN7testing8internal23CartesianProductHolder3INS0_11ValueArray3IN2cv5Size_IiEES5_S5_EENS0_11ValueArray2IddEENS7_IN4perf7MatTypeESA_EEEC2ERKS6_RKS8_RKSB_(ptr noundef nonnull align 8 dereferenceable(48) %0, ptr noundef nonnull align 4 dereferenceable(24) %9, ptr noundef nonnull align 8 dereferenceable(16) %10, ptr noundef nonnull align 4 dereferenceable(8) %11)
  ret void
}

; Function Attrs: mustprogress uwtable
define linkonce_odr hidden void @_ZN7testing6ValuesIN4perf7MatTypeES2_EENS_8internal11ValueArray2IT_T0_EES5_S6_(ptr dead_on_unwind noalias writable sret(%"class.testing::internal::ValueArray2.187") align 4 %0, i32 %1, i32 %2) #6 comdat {
  %4 = alloca ptr, align 8
  %5 = alloca %"class.perf::MatType", align 4
  %6 = alloca %"class.perf::MatType", align 4
  %7 = alloca %"class.perf::MatType", align 4
  %8 = alloca %"class.perf::MatType", align 4
  store ptr %0, ptr %4, align 8
  %9 = getelementptr inbounds nuw %"class.perf::MatType", ptr %5, i32 0, i32 0
  store i32 %1, ptr %9, align 4
  %10 = getelementptr inbounds nuw %"class.perf::MatType", ptr %6, i32 0, i32 0
  store i32 %2, ptr %10, align 4
  call void @llvm.memcpy.p0.p0.i64(ptr align 4 %7, ptr align 4 %5, i64 4, i1 false), !tbaa.struct !80
  call void @llvm.memcpy.p0.p0.i64(ptr align 4 %8, ptr align 4 %6, i64 4, i1 false), !tbaa.struct !80
  %11 = getelementptr inbounds nuw %"class.perf::MatType", ptr %7, i32 0, i32 0
  %12 = load i32, ptr %11, align 4
  %13 = getelementptr inbounds nuw %"class.perf::MatType", ptr %8, i32 0, i32 0
  %14 = load i32, ptr %13, align 4
  call void @_ZN7testing8internal11ValueArray2IN4perf7MatTypeES3_EC2ES3_S3_(ptr noundef nonnull align 4 dereferenceable(8) %0, i32 %12, i32 %14)
  ret void
}

; Function Attrs: mustprogress nounwind uwtable
define linkonce_odr hidden void @_ZN4perf7MatTypeC2Ei(ptr noundef nonnull align 4 dereferenceable(4) %0, i32 noundef %1) unnamed_addr #9 comdat align 2 {
  %3 = alloca ptr, align 8
  %4 = alloca i32, align 4
  store ptr %0, ptr %3, align 8, !tbaa !90
  store i32 %1, ptr %4, align 4, !tbaa !9
  %5 = load ptr, ptr %3, align 8
  %6 = getelementptr inbounds nuw %"class.perf::MatType", ptr %5, i32 0, i32 0
  %7 = load i32, ptr %4, align 4, !tbaa !9
  store i32 %7, ptr %6, align 4, !tbaa !92
  ret void
}

; Function Attrs: mustprogress uwtable
define linkonce_odr hidden void @_ZN7testing6ValuesIddEENS_8internal11ValueArray2IT_T0_EES3_S4_(ptr dead_on_unwind noalias writable sret(%"class.testing::internal::ValueArray2.186") align 8 %0, double noundef %1, double noundef %2) #6 comdat {
  %4 = alloca ptr, align 8
  %5 = alloca double, align 8
  %6 = alloca double, align 8
  store ptr %0, ptr %4, align 8
  store double %1, ptr %5, align 8, !tbaa !83
  store double %2, ptr %6, align 8, !tbaa !83
  %7 = load double, ptr %5, align 8, !tbaa !83
  %8 = load double, ptr %6, align 8, !tbaa !83
  call void @_ZN7testing8internal11ValueArray2IddEC2Edd(ptr noundef nonnull align 8 dereferenceable(16) %0, double noundef %7, double noundef %8)
  ret void
}

; Function Attrs: mustprogress uwtable
define linkonce_odr hidden void @_ZN7testing6ValuesIN2cv5Size_IiEES3_S3_EENS_8internal11ValueArray3IT_T0_T1_EES6_S7_S8_(ptr dead_on_unwind noalias writable sret(%"class.testing::internal::ValueArray3.185") align 4 %0, i64 %1, i64 %2, i64 %3) #6 comdat {
  %5 = alloca ptr, align 8
  %6 = alloca %"class.cv::Size_", align 4
  %7 = alloca %"class.cv::Size_", align 4
  %8 = alloca %"class.cv::Size_", align 4
  %9 = alloca %"class.cv::Size_", align 4
  %10 = alloca %"class.cv::Size_", align 4
  %11 = alloca %"class.cv::Size_", align 4
  store ptr %0, ptr %5, align 8
  store i64 %1, ptr %6, align 4
  store i64 %2, ptr %7, align 4
  store i64 %3, ptr %8, align 4
  call void @llvm.memcpy.p0.p0.i64(ptr align 4 %9, ptr align 4 %6, i64 8, i1 false), !tbaa.struct !73
  call void @llvm.memcpy.p0.p0.i64(ptr align 4 %10, ptr align 4 %7, i64 8, i1 false), !tbaa.struct !73
  call void @llvm.memcpy.p0.p0.i64(ptr align 4 %11, ptr align 4 %8, i64 8, i1 false), !tbaa.struct !73
  %12 = load i64, ptr %9, align 4
  %13 = load i64, ptr %10, align 4
  %14 = load i64, ptr %11, align 4
  call void @_ZN7testing8internal11ValueArray3IN2cv5Size_IiEES4_S4_EC2ES4_S4_S4_(ptr noundef nonnull align 4 dereferenceable(24) %0, i64 %12, i64 %13, i64 %14)
  ret void
}

; Function Attrs: mustprogress uwtable
define internal void @_ZN11opencv_testL39gtest_Sz_ClipLimit_CLAHE_EvalGenerator_Ev(ptr dead_on_unwind noalias writable sret(%"class.testing::internal::ParamGenerator.95") align 8 %0) #6 {
  %2 = alloca ptr, align 8
  %3 = alloca %"class.testing::internal::CartesianProductHolder3", align 8
  %4 = alloca %"class.testing::internal::ValueArray3.185", align 4
  %5 = alloca %"class.cv::Size_", align 4
  %6 = alloca %"class.cv::Size_", align 4
  %7 = alloca %"class.cv::Size_", align 4
  %8 = alloca %"class.testing::internal::ValueArray2.186", align 8
  %9 = alloca %"class.testing::internal::ValueArray2.187", align 4
  %10 = alloca %"class.perf::MatType", align 4
  %11 = alloca %"class.perf::MatType", align 4
  store ptr %0, ptr %2, align 8
  call void @llvm.lifetime.start.p0(i64 48, ptr %3) #3
  call void @llvm.lifetime.start.p0(i64 24, ptr %4) #3
  call void @llvm.memcpy.p0.p0.i64(ptr align 4 %5, ptr align 4 @_ZN4perfL5szVGAE, i64 8, i1 false), !tbaa.struct !73
  call void @llvm.memcpy.p0.p0.i64(ptr align 4 %6, ptr align 4 @_ZN4perfL6sz720pE, i64 8, i1 false), !tbaa.struct !73
  call void @llvm.memcpy.p0.p0.i64(ptr align 4 %7, ptr align 4 @_ZN4perfL7sz1080pE, i64 8, i1 false), !tbaa.struct !73
  %12 = load i64, ptr %5, align 4
  %13 = load i64, ptr %6, align 4
  %14 = load i64, ptr %7, align 4
  call void @_ZN7testing6ValuesIN2cv5Size_IiEES3_S3_EENS_8internal11ValueArray3IT_T0_T1_EES6_S7_S8_(ptr dead_on_unwind writable sret(%"class.testing::internal::ValueArray3.185") align 4 %4, i64 %12, i64 %13, i64 %14)
  call void @llvm.lifetime.start.p0(i64 16, ptr %8) #3
  call void @_ZN7testing6ValuesIddEENS_8internal11ValueArray2IT_T0_EES3_S4_(ptr dead_on_unwind writable sret(%"class.testing::internal::ValueArray2.186") align 8 %8, double noundef 0.000000e+00, double noundef 4.000000e+01)
  call void @llvm.lifetime.start.p0(i64 8, ptr %9) #3
  call void @_ZN4perf7MatTypeC2Ei(ptr noundef nonnull align 4 dereferenceable(4) %10, i32 noundef 0)
  call void @_ZN4perf7MatTypeC2Ei(ptr noundef nonnull align 4 dereferenceable(4) %11, i32 noundef 2)
  %15 = getelementptr inbounds nuw %"class.perf::MatType", ptr %10, i32 0, i32 0
  %16 = load i32, ptr %15, align 4
  %17 = getelementptr inbounds nuw %"class.perf::MatType", ptr %11, i32 0, i32 0
  %18 = load i32, ptr %17, align 4
  call void @_ZN7testing6ValuesIN4perf7MatTypeES2_EENS_8internal11ValueArray2IT_T0_EES5_S6_(ptr dead_on_unwind writable sret(%"class.testing::internal::ValueArray2.187") align 4 %9, i32 %16, i32 %18)
  call void @_ZN7testing7CombineINS_8internal11ValueArray3IN2cv5Size_IiEES5_S5_EENS1_11ValueArray2IddEENS7_IN4perf7MatTypeESA_EEEENS1_23CartesianProductHolder3IT_T0_T1_EERKSD_RKSE_RKSF_(ptr dead_on_unwind writable sret(%"class.testing::internal::CartesianProductHolder3") align 8 %3, ptr noundef nonnull align 4 dereferenceable(24) %4, ptr noundef nonnull align 8 dereferenceable(16) %8, ptr noundef nonnull align 4 dereferenceable(8) %9)
  call void @_ZNK7testing8internal23CartesianProductHolder3INS0_11ValueArray3IN2cv5Size_IiEES5_S5_EENS0_11ValueArray2IddEENS7_IN4perf7MatTypeESA_EEEcvNS0_14ParamGeneratorISt5tupleIJT_T0_T1_EEEEIS5_dSA_EEv(ptr dead_on_unwind writable sret(%"class.testing::internal::ParamGenerator.95") align 8 %0, ptr noundef nonnull align 8 dereferenceable(48) %3)
  call void @llvm.lifetime.end.p0(i64 8, ptr %9) #3
  call void @llvm.lifetime.end.p0(i64 16, ptr %8) #3
  call void @llvm.lifetime.end.p0(i64 24, ptr %4) #3
  call void @llvm.lifetime.end.p0(i64 48, ptr %3) #3
  ret void
}