; Function Attrs: mustprogress uwtable
define internal void @_ZN11opencv_testL39gtest_Sz_ClipLimit_CLAHE_EvalGenerator_Ev(ptr dead_on_unwind noalias writable sret(%"class.testing::internal::ParamGenerator.95") align 8 %0) #4 {
  %2 = alloca %"class.testing::internal::CartesianProductHolder3", align 8
  call void @llvm.lifetime.start.p0(i64 48, ptr nonnull %2) #30
  %.sroa.02.0.copyload = load i64, ptr @_ZN4perfL5szVGAE, align 8
  %.sroa.01.0.copyload = load i64, ptr @_ZN4perfL6sz720pE, align 8
  %.sroa.0.0.copyload = load i64, ptr @_ZN4perfL7sz1080pE, align 8
  store i64 %.sroa.02.0.copyload, ptr %2, align 8, !alias.scope !211
  %3 = getelementptr inbounds nuw i8, ptr %2, i64 8
  store i64 %.sroa.01.0.copyload, ptr %3, align 8, !alias.scope !211
  %4 = getelementptr inbounds nuw i8, ptr %2, i64 16
  store i64 %.sroa.0.0.copyload, ptr %4, align 8, !alias.scope !211
  %5 = getelementptr inbounds nuw i8, ptr %2, i64 24
  store double 0.000000e+00, ptr %5, align 8, !tbaa !214, !alias.scope !211
  %6 = getelementptr inbounds nuw i8, ptr %2, i64 32
  store double 4.000000e+01, ptr %6, align 8, !tbaa !216, !alias.scope !211
  %7 = getelementptr inbounds nuw i8, ptr %2, i64 40
  store i32 0, ptr %7, align 8, !tbaa !77, !alias.scope !211
  %8 = getelementptr inbounds nuw i8, ptr %2, i64 44
  store i32 2, ptr %8, align 4, !tbaa !77, !alias.scope !211
  call void @_ZNK7testing8internal23CartesianProductHolder3INS0_11ValueArray3IN2cv5Size_IiEES5_S5_EENS0_11ValueArray2IddEENS7_IN4perf7MatTypeESA_EEEcvNS0_14ParamGeneratorISt5tupleIJT_T0_T1_EEEEIS5_dSA_EEv(ptr dead_on_unwind writable sret(%"class.testing::internal::ParamGenerator.95") align 8 %0, ptr noundef nonnull align 8 dereferenceable(48) %2)
  call void @llvm.lifetime.end.p0(i64 48, ptr nonnull %2) #30
  ret void
}